; Function Attrs: nounwind uwtable
define dso_local ptr @GetFdwRoutineForRelation(ptr noundef captures(none) %0, i1 noundef zeroext %1) local_unnamed_addr #0 {
  %3 = getelementptr inbounds nuw i8, ptr %0, i64 464
  %4 = load ptr, ptr %3, align 8
  %5 = icmp eq ptr %4, null
  br i1 %5, label %6, label %24

6:                                                ; preds = %2
  %7 = getelementptr inbounds nuw i8, ptr %0, i64 72
  %8 = load i32, ptr %7, align 8
  %9 = zext i32 %8 to i64
  %10 = tail call ptr @SearchSysCache1(i32 noundef 33, i64 noundef %9) #8
  %.not.i.i = icmp eq ptr %10, null
  br i1 %.not.i.i, label %11, label %GetFdwRoutineByRelId.exit

11:                                               ; preds = %6
  %12 = tail call zeroext i1 @errstart_cold(i32 noundef 21, ptr noundef null) #9
  tail call void @llvm.assume(i1 %12)
  %13 = tail call i32 (ptr, ...) @errmsg_internal(ptr noundef nonnull @.str.5, i32 noundef %8) #8
  tail call void @errfinish(ptr noundef nonnull @.str.1, i32 noundef 363, ptr noundef nonnull @__func__.GetForeignServerIdByRelId) #8
  unreachable

GetFdwRoutineByRelId.exit:                        ; preds = %6
  %14 = getelementptr i8, ptr %10, i64 16
  %.val.i.i = load ptr, ptr %14, align 8
  %15 = getelementptr inbounds nuw i8, ptr %.val.i.i, i64 22
  %16 = load i8, ptr %15, align 2
  %17 = zext i8 %16 to i64
  %18 = getelementptr inbounds nuw i8, ptr %.val.i.i, i64 %17
  %19 = getelementptr inbounds nuw i8, ptr %18, i64 4
  %20 = load i32, ptr %19, align 4
  tail call void @ReleaseSysCache(ptr noundef nonnull %10) #8
  %21 = tail call nonnull ptr @GetFdwRoutineByServerId(i32 noundef %20)
  %22 = load ptr, ptr @CacheMemoryContext, align 8
  %23 = tail call ptr @MemoryContextAlloc(ptr noundef %22, i64 noundef 368) #8
  tail call void @llvm.memcpy.p0.p0.i64(ptr noundef nonnull align 8 dereferenceable(368) %23, ptr noundef nonnull align 8 dereferenceable(368) %21, i64 368, i1 false)
  store ptr %23, ptr %3, align 8
  br label %28

24:                                               ; preds = %2
  br i1 %1, label %25, label %28

25:                                               ; preds = %24
  %26 = tail call ptr @palloc(i64 noundef 368) #8
  %27 = load ptr, ptr %3, align 8
  tail call void @llvm.memcpy.p0.p0.i64(ptr noundef nonnull align 8 dereferenceable(368) %26, ptr noundef nonnull align 8 dereferenceable(368) %27, i64 368, i1 false)
  br label %28

28:                                               ; preds = %24, %25, %GetFdwRoutineByRelId.exit
  %.0 = phi ptr [ %21, %GetFdwRoutineByRelId.exit ], [ %26, %25 ], [ %4, %24 ]
  ret ptr %.0
}